; ModuleID = 'source-C-CXX/32/342.c'
source_filename = "source-C-CXX/32/342.c"
target datalayout = "e-m:e-p270:32:32-p271:32:32-p272:64:64-i64:64-f80:128-n8:16:32:64-S128"
target triple = "x86_64-pc-linux-gnu"

@.str = private unnamed_addr constant [3 x i8] c"%d\00", align 1

; Function Attrs: nounwind sspstrong uwtable
define dso_local void @main() local_unnamed_addr #0 {
  %1 = alloca i32, align 4
  %2 = alloca [10 x i8], align 1
  %3 = alloca [256 x i8], align 16
  %4 = bitcast i32* %1 to i8*
  call void @llvm.lifetime.start.p0i8(i64 4, i8* nonnull %4) #7
  %5 = getelementptr inbounds [10 x i8], [10 x i8]* %2, i64 0, i64 0
  call void @llvm.lifetime.start.p0i8(i64 10, i8* nonnull %5) #7
  %6 = getelementptr inbounds [256 x i8], [256 x i8]* %3, i64 0, i64 0
  call void @llvm.lifetime.start.p0i8(i64 256, i8* nonnull %6) #7
  %7 = call i32 (i8*, ...) @__isoc99_scanf(i8* getelementptr inbounds ([3 x i8], [3 x i8]* @.str, i64 0, i64 0), i32* nonnull %1)
  %8 = call i32 (i8*, ...) bitcast (i32 (...)* @gets to i32 (i8*, ...)*)(i8* nonnull %5) #7
  %9 = load i32, i32* %1, align 4, !tbaa !5
  %10 = add nsw i32 %9, -1
  store i32 %10, i32* %1, align 4, !tbaa !5
  %11 = icmp eq i32 %9, 0
  br i1 %11, label %38, label %12

12:                                               ; preds = %0, %33
  call void @llvm.memset.p0i8.i64(i8* noundef nonnull align 16 dereferenceable(256) %6, i8 0, i64 256, i1 false)
  %13 = call i32 (i8*, ...) bitcast (i32 (...)* @gets to i32 (i8*, ...)*)(i8* nonnull %6) #7
  %14 = call i64 @strlen(i8* noundef nonnull %6) #8
  %15 = trunc i64 %14 to i32
  %16 = icmp sgt i32 %15, 0
  br i1 %16, label %17, label %33

17:                                               ; preds = %12
  %18 = and i64 %14, 4294967295
  br label %19

19:                                               ; preds = %17, %30
  %20 = phi i64 [ 0, %17 ], [ %31, %30 ]
  %21 = getelementptr inbounds [256 x i8], [256 x i8]* %3, i64 0, i64 %20
  %22 = load i8, i8* %21, align 1, !tbaa !9
  %23 = sext i8 %22 to i32
  switch i32 %23, label %30 [
    i32 65, label %27
    i32 84, label %24
    i32 67, label %25
    i32 71, label %26
  ]

24:                                               ; preds = %19
  br label %27

25:                                               ; preds = %19
  br label %27

26:                                               ; preds = %19
  br label %27

27:                                               ; preds = %19, %26, %25, %24
  %28 = phi i32 [ 65, %24 ], [ 71, %25 ], [ 67, %26 ], [ 84, %19 ]
  %29 = call i32 @putchar(i32 %28)
  br label %30

30:                                               ; preds = %27, %19
  %31 = add nuw nsw i64 %20, 1
  %32 = icmp eq i64 %31, %18
  br i1 %32, label %33, label %19, !llvm.loop !10

33:                                               ; preds = %30, %12
  %34 = call i32 @putchar(i32 10)
  %35 = load i32, i32* %1, align 4, !tbaa !5
  %36 = add nsw i32 %35, -1
  store i32 %36, i32* %1, align 4, !tbaa !5
  %37 = icmp eq i32 %35, 0
  br i1 %37, label %38, label %12, !llvm.loop !12

38:                                               ; preds = %33, %0
  call void @llvm.lifetime.end.p0i8(i64 256, i8* nonnull %6) #7
  call void @llvm.lifetime.end.p0i8(i64 10, i8* nonnull %5) #7
  call void @llvm.lifetime.end.p0i8(i64 4, i8* nonnull %4) #7
  ret void
}

; Function Attrs: argmemonly mustprogress nofree nosync nounwind willreturn
declare void @llvm.lifetime.start.p0i8(i64 immarg, i8* nocapture) #1

; Function Attrs: nofree nounwind
declare noundef i32 @__isoc99_scanf(i8* nocapture noundef readonly, ...) local_unnamed_addr #2

declare i32 @gets(...) local_unnamed_addr #3

; Function Attrs: argmemonly mustprogress nofree nounwind willreturn writeonly
declare void @llvm.memset.p0i8.i64(i8* nocapture writeonly, i8, i64, i1 immarg) #4

; Function Attrs: argmemonly mustprogress nofree nounwind readonly willreturn
declare i64 @strlen(i8* nocapture) local_unnamed_addr #5

; Function Attrs: argmemonly mustprogress nofree nosync nounwind willreturn
declare void @llvm.lifetime.end.p0i8(i64 immarg, i8* nocapture) #1

; Function Attrs: nofree nounwind
declare noundef i32 @putchar(i32 noundef) local_unnamed_addr #6


!llvm.module.flags = !{!0, !1, !2, !3}
!llvm.ident = !{!4}

!0 = !{i32 1, !"wchar_size", i32 4}
!1 = !{i32 7, !"PIC Level", i32 2}
!2 = !{i32 7, !"PIE Level", i32 2}
!3 = !{i32 7, !"uwtable", i32 1}
!4 = !{!"clang version 13.0.0"}
!5 = !{!6, !6, i64 0}
!6 = !{!"int", !7, i64 0}
!7 = !{!"omnipotent char", !8, i64 0}
!8 = !{!"Simple C/C++ TBAA"}
!9 = !{!7, !7, i64 0}
!10 = distinct !{!10, !11}
!11 = !{!"llvm.loop.mustprogress"}
!12 = distinct !{!12, !11}
